target datalayout = "e-m:e-p270:32:32-p271:32:32-p272:64:64-i64:64-i128:128-f80:128-n8:16:32:64-S128"
target triple = "x86_64-pc-linux-gnu"

%struct.pmix_tma = type { ptr, ptr, ptr, ptr, ptr, ptr, ptr, ptr }
%struct.pmix_coord = type { i8, ptr, i64 }
%struct.pmix_geometry = type { i64, ptr, ptr, ptr, i64 }

; Function Attrs: inlinehint nounwind uwtable
define internal void @pmix_bfrops_base_tma_geometry_construct(ptr noundef %0, ptr noundef %1) #2 {
  %3 = alloca ptr, align 8
  %4 = alloca ptr, align 8
  store ptr %0, ptr %3, align 8, !tbaa !126
  store ptr %1, ptr %4, align 8, !tbaa !15
  %5 = load ptr, ptr %3, align 8, !tbaa !126
  call void @llvm.memset.p0.i64(ptr align 8 %5, i8 0, i64 40, i1 false)
  ret void
}

; Function Attrs: inlinehint nounwind uwtable
define internal ptr @pmix_tma_malloc(ptr noundef %0, i64 noundef %1) #2 {
  %3 = alloca ptr, align 8
  %4 = alloca ptr, align 8
  %5 = alloca i64, align 8
  store ptr %0, ptr %4, align 8, !tbaa !15
  store i64 %1, ptr %5, align 8, !tbaa !13
  %6 = load ptr, ptr %4, align 8, !tbaa !15
  %7 = icmp ne ptr null, %6
  br i1 %7, label %8, label %15

8:                                                ; preds = %2
  %9 = load ptr, ptr %4, align 8, !tbaa !15
  %10 = getelementptr inbounds nuw %struct.pmix_tma, ptr %9, i32 0, i32 0
  %11 = load ptr, ptr %10, align 8, !tbaa !88
  %12 = load ptr, ptr %4, align 8, !tbaa !15
  %13 = load i64, ptr %5, align 8, !tbaa !13
  %14 = call ptr %11(ptr noundef %12, i64 noundef %13)
  store ptr %14, ptr %3, align 8
  br label %18

15:                                               ; preds = %2
  %16 = load i64, ptr %5, align 8, !tbaa !13
  %17 = call noalias ptr @malloc(i64 noundef %16) #17
  store ptr %17, ptr %3, align 8
  br label %18

18:                                               ; preds = %15, %8
  %19 = load ptr, ptr %3, align 8
  ret ptr %19
}

; Function Attrs: inlinehint nounwind uwtable
define internal i32 @pmix_bfrops_base_tma_fill_coord(ptr noundef %0, ptr noundef %1, ptr noundef %2) #2 {
  %4 = alloca i32, align 4
  %5 = alloca ptr, align 8
  %6 = alloca ptr, align 8
  %7 = alloca ptr, align 8
  store ptr %0, ptr %5, align 8, !tbaa !122
  store ptr %1, ptr %6, align 8, !tbaa !122
  store ptr %2, ptr %7, align 8, !tbaa !15
  %8 = load ptr, ptr %6, align 8, !tbaa !122
  %9 = getelementptr inbounds nuw %struct.pmix_coord, ptr %8, i32 0, i32 0
  %10 = load i8, ptr %9, align 8, !tbaa !205
  %11 = load ptr, ptr %5, align 8, !tbaa !122
  %12 = getelementptr inbounds nuw %struct.pmix_coord, ptr %11, i32 0, i32 0
  store i8 %10, ptr %12, align 8, !tbaa !205
  %13 = load ptr, ptr %6, align 8, !tbaa !122
  %14 = getelementptr inbounds nuw %struct.pmix_coord, ptr %13, i32 0, i32 2
  %15 = load i64, ptr %14, align 8, !tbaa !209
  %16 = load ptr, ptr %5, align 8, !tbaa !122
  %17 = getelementptr inbounds nuw %struct.pmix_coord, ptr %16, i32 0, i32 2
  store i64 %15, ptr %17, align 8, !tbaa !209
  %18 = load ptr, ptr %5, align 8, !tbaa !122
  %19 = getelementptr inbounds nuw %struct.pmix_coord, ptr %18, i32 0, i32 2
  %20 = load i64, ptr %19, align 8, !tbaa !209
  %21 = icmp ult i64 0, %20
  br i1 %21, label %22, label %53

22:                                               ; preds = %3
  %23 = load ptr, ptr %7, align 8, !tbaa !15
  %24 = load ptr, ptr %5, align 8, !tbaa !122
  %25 = getelementptr inbounds nuw %struct.pmix_coord, ptr %24, i32 0, i32 2
  %26 = load i64, ptr %25, align 8, !tbaa !209
  %27 = mul i64 %26, 4
  %28 = call ptr @pmix_tma_malloc(ptr noundef %23, i64 noundef %27)
  %29 = load ptr, ptr %5, align 8, !tbaa !122
  %30 = getelementptr inbounds nuw %struct.pmix_coord, ptr %29, i32 0, i32 1
  store ptr %28, ptr %30, align 8, !tbaa !208
  %31 = load ptr, ptr %5, align 8, !tbaa !122
  %32 = getelementptr inbounds nuw %struct.pmix_coord, ptr %31, i32 0, i32 1
  %33 = load ptr, ptr %32, align 8, !tbaa !208
  %34 = icmp eq ptr null, %33
  %35 = xor i1 %34, true
  %36 = xor i1 %35, true
  %37 = zext i1 %36 to i32
  %38 = sext i32 %37 to i64
  %39 = call i64 @llvm.expect.i64(i64 %38, i64 0)
  %40 = icmp ne i64 %39, 0
  br i1 %40, label %41, label %42

41:                                               ; preds = %22
  store i32 -32, ptr %4, align 4
  br label %54

42:                                               ; preds = %22
  %43 = load ptr, ptr %5, align 8, !tbaa !122
  %44 = getelementptr inbounds nuw %struct.pmix_coord, ptr %43, i32 0, i32 1
  %45 = load ptr, ptr %44, align 8, !tbaa !208
  %46 = load ptr, ptr %6, align 8, !tbaa !122
  %47 = getelementptr inbounds nuw %struct.pmix_coord, ptr %46, i32 0, i32 1
  %48 = load ptr, ptr %47, align 8, !tbaa !208
  %49 = load ptr, ptr %5, align 8, !tbaa !122
  %50 = getelementptr inbounds nuw %struct.pmix_coord, ptr %49, i32 0, i32 2
  %51 = load i64, ptr %50, align 8, !tbaa !209
  %52 = mul i64 %51, 4
  call void @llvm.memcpy.p0.p0.i64(ptr align 4 %45, ptr align 4 %48, i64 %52, i1 false)
  br label %53

53:                                               ; preds = %42, %3
  store i32 0, ptr %4, align 4
  br label %54

54:                                               ; preds = %53, %41
  %55 = load i32, ptr %4, align 4
  ret i32 %55
}

; Function Attrs: inlinehint nounwind uwtable
define internal ptr @pmix_tma_calloc(ptr noundef %0, i64 noundef %1, i64 noundef %2) #2 {
  %4 = alloca ptr, align 8
  %5 = alloca ptr, align 8
  %6 = alloca i64, align 8
  %7 = alloca i64, align 8
  store ptr %0, ptr %5, align 8, !tbaa !15
  store i64 %1, ptr %6, align 8, !tbaa !13
  store i64 %2, ptr %7, align 8, !tbaa !13
  %8 = load ptr, ptr %5, align 8, !tbaa !15
  %9 = icmp ne ptr null, %8
  br i1 %9, label %10, label %18

10:                                               ; preds = %3
  %11 = load ptr, ptr %5, align 8, !tbaa !15
  %12 = getelementptr inbounds nuw %struct.pmix_tma, ptr %11, i32 0, i32 1
  %13 = load ptr, ptr %12, align 8, !tbaa !311
  %14 = load ptr, ptr %5, align 8, !tbaa !15
  %15 = load i64, ptr %6, align 8, !tbaa !13
  %16 = load i64, ptr %7, align 8, !tbaa !13
  %17 = call ptr %13(ptr noundef %14, i64 noundef %15, i64 noundef %16)
  store ptr %17, ptr %4, align 8
  br label %22

18:                                               ; preds = %3
  %19 = load i64, ptr %6, align 8, !tbaa !13
  %20 = load i64, ptr %7, align 8, !tbaa !13
  %21 = call noalias ptr @calloc(i64 noundef %19, i64 noundef %20) #20
  store ptr %21, ptr %4, align 8
  br label %22

22:                                               ; preds = %18, %10
  %23 = load ptr, ptr %4, align 8
  ret ptr %23
}

; Function Attrs: inlinehint nounwind uwtable
define internal ptr @pmix_tma_strdup(ptr noundef %0, ptr noundef %1) #2 {
  %3 = alloca ptr, align 8
  %4 = alloca ptr, align 8
  %5 = alloca ptr, align 8
  store ptr %0, ptr %4, align 8, !tbaa !15
  store ptr %1, ptr %5, align 8, !tbaa !43
  %6 = load ptr, ptr %4, align 8, !tbaa !15
  %7 = icmp ne ptr null, %6
  br i1 %7, label %8, label %15

8:                                                ; preds = %2
  %9 = load ptr, ptr %4, align 8, !tbaa !15
  %10 = getelementptr inbounds nuw %struct.pmix_tma, ptr %9, i32 0, i32 3
  %11 = load ptr, ptr %10, align 8, !tbaa !243
  %12 = load ptr, ptr %4, align 8, !tbaa !15
  %13 = load ptr, ptr %5, align 8, !tbaa !43
  %14 = call ptr %11(ptr noundef %12, ptr noundef %13)
  store ptr %14, ptr %3, align 8
  br label %18

15:                                               ; preds = %2
  %16 = load ptr, ptr %5, align 8, !tbaa !43
  %17 = call noalias ptr @strdup(ptr noundef %16) #15
  store ptr %17, ptr %3, align 8
  br label %18

18:                                               ; preds = %15, %8
  %19 = load ptr, ptr %3, align 8
  ret ptr %19
}

; Function Attrs: inlinehint nounwind uwtable
define internal ptr @pmix_bfrops_base_tma_geometry_create(i64 noundef %0, ptr noundef %1) #2 {
  %3 = alloca ptr, align 8
  %4 = alloca i64, align 8
  %5 = alloca ptr, align 8
  %6 = alloca ptr, align 8
  %7 = alloca i64, align 8
  store i64 %0, ptr %4, align 8, !tbaa !13
  store ptr %1, ptr %5, align 8, !tbaa !15
  %8 = load i64, ptr %4, align 8, !tbaa !13
  %9 = icmp eq i64 0, %8
  br i1 %9, label %10, label %11

10:                                               ; preds = %2
  store ptr null, ptr %3, align 8
  br label %41

11:                                               ; preds = %2
  call void @llvm.lifetime.start.p0(i64 8, ptr %6) #15
  %12 = load ptr, ptr %5, align 8, !tbaa !15
  %13 = load i64, ptr %4, align 8, !tbaa !13
  %14 = mul i64 %13, 40
  %15 = call ptr @pmix_tma_malloc(ptr noundef %12, i64 noundef %14)
  store ptr %15, ptr %6, align 8, !tbaa !126
  %16 = load ptr, ptr %6, align 8, !tbaa !126
  %17 = icmp ne ptr null, %16
  %18 = xor i1 %17, true
  %19 = xor i1 %18, true
  %20 = zext i1 %19 to i32
  %21 = sext i32 %20 to i64
  %22 = call i64 @llvm.expect.i64(i64 %21, i64 1)
  %23 = icmp ne i64 %22, 0
  br i1 %23, label %24, label %39

24:                                               ; preds = %11
  call void @llvm.lifetime.start.p0(i64 8, ptr %7) #15
  store i64 0, ptr %7, align 8, !tbaa !13
  br label %25

25:                                               ; preds = %35, %24
  %26 = load i64, ptr %7, align 8, !tbaa !13
  %27 = load i64, ptr %4, align 8, !tbaa !13
  %28 = icmp ult i64 %26, %27
  br i1 %28, label %30, label %29

29:                                               ; preds = %25
  call void @llvm.lifetime.end.p0(i64 8, ptr %7) #15
  br label %38

30:                                               ; preds = %25
  %31 = load ptr, ptr %6, align 8, !tbaa !126
  %32 = load i64, ptr %7, align 8, !tbaa !13
  %33 = getelementptr inbounds nuw %struct.pmix_geometry, ptr %31, i64 %32
  %34 = load ptr, ptr %5, align 8, !tbaa !15
  call void @pmix_bfrops_base_tma_geometry_construct(ptr noundef %33, ptr noundef %34)
  br label %35

35:                                               ; preds = %30
  %36 = load i64, ptr %7, align 8, !tbaa !13
  %37 = add i64 %36, 1
  store i64 %37, ptr %7, align 8, !tbaa !13
  br label %25, !llvm.loop !338

38:                                               ; preds = %29
  br label %39

39:                                               ; preds = %38, %11
  %40 = load ptr, ptr %6, align 8, !tbaa !126
  store ptr %40, ptr %3, align 8
  call void @llvm.lifetime.end.p0(i64 8, ptr %6) #15
  br label %41

41:                                               ; preds = %39, %10
  %42 = load ptr, ptr %3, align 8
  ret ptr %42
}

; Function Attrs: inlinehint nounwind uwtable
define internal i32 @pmix_bfrops_base_tma_copy_geometry(ptr noundef %0, ptr noundef %1, i16 noundef zeroext %2, ptr noundef %3) #2 {
  %5 = alloca i32, align 4
  %6 = alloca ptr, align 8
  %7 = alloca ptr, align 8
  %8 = alloca i16, align 2
  %9 = alloca ptr, align 8
  %10 = alloca ptr, align 8
  %11 = alloca i32, align 4
  %12 = alloca i64, align 8
  %13 = alloca i32, align 4
  store ptr %0, ptr %6, align 8, !tbaa !292
  store ptr %1, ptr %7, align 8, !tbaa !126
  store i16 %2, ptr %8, align 2, !tbaa !85
  store ptr %3, ptr %9, align 8, !tbaa !15
  call void @llvm.lifetime.start.p0(i64 8, ptr %10) #15
  %14 = load ptr, ptr %9, align 8, !tbaa !15
  %15 = call ptr @pmix_bfrops_base_tma_geometry_create(i64 noundef 1, ptr noundef %14)
  store ptr %15, ptr %10, align 8, !tbaa !126
  %16 = load ptr, ptr %10, align 8, !tbaa !126
  %17 = icmp eq ptr null, %16
  %18 = xor i1 %17, true
  %19 = xor i1 %18, true
  %20 = zext i1 %19 to i32
  %21 = sext i32 %20 to i64
  %22 = call i64 @llvm.expect.i64(i64 %21, i64 0)
  %23 = icmp ne i64 %22, 0
  br i1 %23, label %24, label %25

24:                                               ; preds = %4
  store i32 -32, ptr %5, align 4
  store i32 1, ptr %11, align 4
  br label %121

25:                                               ; preds = %4
  %26 = load ptr, ptr %7, align 8, !tbaa !126
  %27 = getelementptr inbounds nuw %struct.pmix_geometry, ptr %26, i32 0, i32 0
  %28 = load i64, ptr %27, align 8, !tbaa !273
  %29 = load ptr, ptr %10, align 8, !tbaa !126
  %30 = getelementptr inbounds nuw %struct.pmix_geometry, ptr %29, i32 0, i32 0
  store i64 %28, ptr %30, align 8, !tbaa !273
  %31 = load ptr, ptr %7, align 8, !tbaa !126
  %32 = getelementptr inbounds nuw %struct.pmix_geometry, ptr %31, i32 0, i32 1
  %33 = load ptr, ptr %32, align 8, !tbaa !210
  %34 = icmp ne ptr null, %33
  br i1 %34, label %35, label %43

35:                                               ; preds = %25
  %36 = load ptr, ptr %9, align 8, !tbaa !15
  %37 = load ptr, ptr %7, align 8, !tbaa !126
  %38 = getelementptr inbounds nuw %struct.pmix_geometry, ptr %37, i32 0, i32 1
  %39 = load ptr, ptr %38, align 8, !tbaa !210
  %40 = call ptr @pmix_tma_strdup(ptr noundef %36, ptr noundef %39)
  %41 = load ptr, ptr %10, align 8, !tbaa !126
  %42 = getelementptr inbounds nuw %struct.pmix_geometry, ptr %41, i32 0, i32 1
  store ptr %40, ptr %42, align 8, !tbaa !210
  br label %43

43:                                               ; preds = %35, %25
  %44 = load ptr, ptr %7, align 8, !tbaa !126
  %45 = getelementptr inbounds nuw %struct.pmix_geometry, ptr %44, i32 0, i32 2
  %46 = load ptr, ptr %45, align 8, !tbaa !212
  %47 = icmp ne ptr null, %46
  br i1 %47, label %48, label %56

48:                                               ; preds = %43
  %49 = load ptr, ptr %9, align 8, !tbaa !15
  %50 = load ptr, ptr %7, align 8, !tbaa !126
  %51 = getelementptr inbounds nuw %struct.pmix_geometry, ptr %50, i32 0, i32 2
  %52 = load ptr, ptr %51, align 8, !tbaa !212
  %53 = call ptr @pmix_tma_strdup(ptr noundef %49, ptr noundef %52)
  %54 = load ptr, ptr %10, align 8, !tbaa !126
  %55 = getelementptr inbounds nuw %struct.pmix_geometry, ptr %54, i32 0, i32 2
  store ptr %53, ptr %55, align 8, !tbaa !212
  br label %56

56:                                               ; preds = %48, %43
  %57 = load ptr, ptr %7, align 8, !tbaa !126
  %58 = getelementptr inbounds nuw %struct.pmix_geometry, ptr %57, i32 0, i32 3
  %59 = load ptr, ptr %58, align 8, !tbaa !213
  %60 = icmp ne ptr null, %59
  br i1 %60, label %61, label %118

61:                                               ; preds = %56
  %62 = load ptr, ptr %7, align 8, !tbaa !126
  %63 = getelementptr inbounds nuw %struct.pmix_geometry, ptr %62, i32 0, i32 4
  %64 = load i64, ptr %63, align 8, !tbaa !214
  %65 = load ptr, ptr %10, align 8, !tbaa !126
  %66 = getelementptr inbounds nuw %struct.pmix_geometry, ptr %65, i32 0, i32 4
  store i64 %64, ptr %66, align 8, !tbaa !214
  %67 = load ptr, ptr %9, align 8, !tbaa !15
  %68 = load ptr, ptr %10, align 8, !tbaa !126
  %69 = getelementptr inbounds nuw %struct.pmix_geometry, ptr %68, i32 0, i32 4
  %70 = load i64, ptr %69, align 8, !tbaa !214
  %71 = call ptr @pmix_tma_calloc(ptr noundef %67, i64 noundef %70, i64 noundef 24)
  %72 = load ptr, ptr %10, align 8, !tbaa !126
  %73 = getelementptr inbounds nuw %struct.pmix_geometry, ptr %72, i32 0, i32 3
  store ptr %71, ptr %73, align 8, !tbaa !213
  call void @llvm.lifetime.start.p0(i64 8, ptr %12) #15
  store i64 0, ptr %12, align 8, !tbaa !13
  br label %74

74:                                               ; preds = %112, %61
  %75 = load i64, ptr %12, align 8, !tbaa !13
  %76 = load ptr, ptr %10, align 8, !tbaa !126
  %77 = getelementptr inbounds nuw %struct.pmix_geometry, ptr %76, i32 0, i32 4
  %78 = load i64, ptr %77, align 8, !tbaa !214
  %79 = icmp ult i64 %75, %78
  br i1 %79, label %81, label %80

80:                                               ; preds = %74
  store i32 2, ptr %11, align 4
  br label %115

81:                                               ; preds = %74
  call void @llvm.lifetime.start.p0(i64 4, ptr %13) #15
  %82 = load ptr, ptr %10, align 8, !tbaa !126
  %83 = getelementptr inbounds nuw %struct.pmix_geometry, ptr %82, i32 0, i32 3
  %84 = load ptr, ptr %83, align 8, !tbaa !213
  %85 = load i64, ptr %12, align 8, !tbaa !13
  %86 = getelementptr inbounds nuw %struct.pmix_coord, ptr %84, i64 %85
  %87 = load ptr, ptr %7, align 8, !tbaa !126
  %88 = getelementptr inbounds nuw %struct.pmix_geometry, ptr %87, i32 0, i32 3
  %89 = load ptr, ptr %88, align 8, !tbaa !213
  %90 = load i64, ptr %12, align 8, !tbaa !13
  %91 = getelementptr inbounds nuw %struct.pmix_coord, ptr %89, i64 %90
  %92 = load ptr, ptr %9, align 8, !tbaa !15
  %93 = call i32 @pmix_bfrops_base_tma_fill_coord(ptr noundef %86, ptr noundef %91, ptr noundef %92)
  store i32 %93, ptr %13, align 4, !tbaa !8
  %94 = load i32, ptr %13, align 4, !tbaa !8
  %95 = icmp ne i32 0, %94
  %96 = xor i1 %95, true
  %97 = xor i1 %96, true
  %98 = zext i1 %97 to i32
  %99 = sext i32 %98 to i64
  %100 = call i64 @llvm.expect.i64(i64 %99, i64 0)
  %101 = icmp ne i64 %100, 0
  br i1 %101, label %102, label %108

102:                                              ; preds = %81
  br label %103

103:                                              ; preds = %102
  %104 = load ptr, ptr %10, align 8, !tbaa !126
  call void @PMIx_Geometry_free(ptr noundef %104, i64 noundef 1)
  store ptr null, ptr %10, align 8, !tbaa !126
  br label %105

105:                                              ; preds = %103
  br label %106

106:                                              ; preds = %105
  %107 = load i32, ptr %13, align 4, !tbaa !8
  store i32 %107, ptr %5, align 4
  store i32 1, ptr %11, align 4
  br label %109

108:                                              ; preds = %81
  store i32 0, ptr %11, align 4
  br label %109

109:                                              ; preds = %108, %106
  call void @llvm.lifetime.end.p0(i64 4, ptr %13) #15
  %110 = load i32, ptr %11, align 4
  switch i32 %110, label %115 [
    i32 0, label %111
  ]

111:                                              ; preds = %109
  br label %112

112:                                              ; preds = %111
  %113 = load i64, ptr %12, align 8, !tbaa !13
  %114 = add i64 %113, 1
  store i64 %114, ptr %12, align 8, !tbaa !13
  br label %74, !llvm.loop !294

115:                                              ; preds = %109, %80
  call void @llvm.lifetime.end.p0(i64 8, ptr %12) #15
  %116 = load i32, ptr %11, align 4
  switch i32 %116, label %121 [
    i32 2, label %117
  ]

117:                                              ; preds = %115
  br label %118

118:                                              ; preds = %117, %56
  %119 = load ptr, ptr %10, align 8, !tbaa !126
  %120 = load ptr, ptr %6, align 8, !tbaa !292
  store ptr %119, ptr %120, align 8, !tbaa !126
  store i32 0, ptr %5, align 4
  store i32 1, ptr %11, align 4
  br label %121

121:                                              ; preds = %118, %115, %24
  call void @llvm.lifetime.end.p0(i64 8, ptr %10) #15
  %122 = load i32, ptr %5, align 4
  ret i32 %122
}