; Function Attrs: inlinehint nounwind uwtable
define internal fastcc range(i32 -32, 1) i32 @pmix_bfrops_base_tma_copy_geometry(ptr noundef nonnull writeonly captures(none) %0, ptr noundef readonly captures(none) %1, ptr noundef %2) unnamed_addr #4 {
  %.not.i.i = icmp eq ptr %2, null
  br i1 %.not.i.i, label %7, label %4

4:                                                ; preds = %3
  %5 = load ptr, ptr %2, align 8, !tbaa !39
  %6 = tail call ptr %5(ptr noundef nonnull %2, i64 noundef 40) #17
  br label %pmix_tma_malloc.exit.i

7:                                                ; preds = %3
  %8 = tail call noalias dereferenceable_or_null(40) ptr @malloc(i64 noundef 40) #18
  br label %pmix_tma_malloc.exit.i

pmix_tma_malloc.exit.i:                           ; preds = %7, %4
  %.0.i.i = phi ptr [ %6, %4 ], [ %8, %7 ]
  %.not.i = icmp eq ptr %.0.i.i, null
  br i1 %.not.i, label %pmix_bfrops_base_tma_geometry_create.exit.thread, label %9, !prof !29

9:                                                ; preds = %pmix_tma_malloc.exit.i
  tail call void @llvm.memset.p0.i64(ptr noundef nonnull align 8 dereferenceable(40) %.0.i.i, i8 0, i64 40, i1 false)
  %10 = load i64, ptr %1, align 8, !tbaa !243
  store i64 %10, ptr %.0.i.i, align 8, !tbaa !243
  %11 = getelementptr inbounds nuw i8, ptr %1, i64 8
  %12 = load ptr, ptr %11, align 8, !tbaa !130
  %.not = icmp eq ptr %12, null
  br i1 %.not, label %21, label %13

13:                                               ; preds = %9
  br i1 %.not.i.i, label %18, label %14

14:                                               ; preds = %13
  %15 = getelementptr inbounds nuw i8, ptr %2, i64 24
  %16 = load ptr, ptr %15, align 8, !tbaa !194
  %17 = tail call ptr %16(ptr noundef nonnull %2, ptr noundef nonnull %12) #17
  br label %pmix_tma_strdup.exit

18:                                               ; preds = %13
  %19 = tail call noalias ptr @strdup(ptr noundef nonnull %12) #17
  br label %pmix_tma_strdup.exit

pmix_tma_strdup.exit:                             ; preds = %14, %18
  %.0.i = phi ptr [ %17, %14 ], [ %19, %18 ]
  %20 = getelementptr inbounds nuw i8, ptr %.0.i.i, i64 8
  store ptr %.0.i, ptr %20, align 8, !tbaa !130
  br label %21

21:                                               ; preds = %pmix_tma_strdup.exit, %9
  %22 = getelementptr inbounds nuw i8, ptr %1, i64 16
  %23 = load ptr, ptr %22, align 8, !tbaa !133
  %.not45 = icmp eq ptr %23, null
  br i1 %.not45, label %32, label %24

24:                                               ; preds = %21
  br i1 %.not.i.i, label %29, label %25

25:                                               ; preds = %24
  %26 = getelementptr inbounds nuw i8, ptr %2, i64 24
  %27 = load ptr, ptr %26, align 8, !tbaa !194
  %28 = tail call ptr %27(ptr noundef nonnull %2, ptr noundef nonnull %23) #17
  br label %pmix_tma_strdup.exit52

29:                                               ; preds = %24
  %30 = tail call noalias ptr @strdup(ptr noundef nonnull %23) #17
  br label %pmix_tma_strdup.exit52

pmix_tma_strdup.exit52:                           ; preds = %25, %29
  %.0.i51 = phi ptr [ %28, %25 ], [ %30, %29 ]
  %31 = getelementptr inbounds nuw i8, ptr %.0.i.i, i64 16
  store ptr %.0.i51, ptr %31, align 8, !tbaa !133
  br label %32

32:                                               ; preds = %pmix_tma_strdup.exit52, %21
  %33 = getelementptr inbounds nuw i8, ptr %1, i64 24
  %34 = load ptr, ptr %33, align 8, !tbaa !134
  %.not46 = icmp eq ptr %34, null
  br i1 %.not46, label %.loopexit, label %35

35:                                               ; preds = %32
  %36 = getelementptr inbounds nuw i8, ptr %1, i64 32
  %37 = load i64, ptr %36, align 8, !tbaa !135
  %38 = getelementptr inbounds nuw i8, ptr %.0.i.i, i64 32
  store i64 %37, ptr %38, align 8, !tbaa !135
  br i1 %.not.i.i, label %pmix_tma_calloc.exit, label %pmix_tma_calloc.exit.thread

pmix_tma_calloc.exit:                             ; preds = %35
  %39 = tail call noalias ptr @calloc(i64 noundef %37, i64 noundef 24) #23
  %40 = getelementptr inbounds nuw i8, ptr %.0.i.i, i64 24
  store ptr %39, ptr %40, align 8, !tbaa !134
  %.not4872.not = icmp eq i64 %37, 0
  br i1 %.not4872.not, label %.loopexit, label %.lr.ph.split.us

pmix_tma_calloc.exit.thread:                      ; preds = %35
  %41 = getelementptr inbounds nuw i8, ptr %2, i64 8
  %42 = load ptr, ptr %41, align 8, !tbaa !203
  %43 = tail call ptr %42(ptr noundef nonnull %2, i64 noundef %37, i64 noundef 24) #17
  %.pre = load i64, ptr %38, align 8, !tbaa !135
  %44 = getelementptr inbounds nuw i8, ptr %.0.i.i, i64 24
  store ptr %43, ptr %44, align 8, !tbaa !134
  %.not4872.not77 = icmp eq i64 %.pre, 0
  br i1 %.not4872.not77, label %.loopexit, label %.lr.ph.split

.lr.ph.split.us:                                  ; preds = %pmix_tma_calloc.exit
  %45 = load ptr, ptr %33, align 8, !tbaa !134
  br label %46

46:                                               ; preds = %60, %.lr.ph.split.us
  %.03473.us = phi i64 [ 0, %.lr.ph.split.us ], [ %61, %60 ]
  %47 = getelementptr inbounds nuw %struct.pmix_coord, ptr %39, i64 %.03473.us
  %48 = getelementptr inbounds nuw %struct.pmix_coord, ptr %45, i64 %.03473.us
  %49 = load i8, ptr %48, align 8, !tbaa !106
  store i8 %49, ptr %47, align 8, !tbaa !106
  %50 = getelementptr inbounds nuw i8, ptr %48, i64 16
  %51 = load i64, ptr %50, align 8, !tbaa !238
  %52 = getelementptr inbounds nuw i8, ptr %47, i64 16
  store i64 %51, ptr %52, align 8, !tbaa !238
  %.not.i55.us = icmp eq i64 %51, 0
  br i1 %.not.i55.us, label %60, label %pmix_tma_malloc.exit.i57.us

pmix_tma_malloc.exit.i57.us:                      ; preds = %46
  %53 = shl i64 %51, 2
  %54 = tail call noalias ptr @malloc(i64 noundef %53) #18
  %55 = getelementptr inbounds nuw i8, ptr %47, i64 8
  store ptr %54, ptr %55, align 8, !tbaa !109
  %56 = icmp eq ptr %54, null
  br i1 %56, label %.thread69, label %57, !prof !29

57:                                               ; preds = %pmix_tma_malloc.exit.i57.us
  %58 = getelementptr inbounds nuw i8, ptr %48, i64 8
  %59 = load ptr, ptr %58, align 8, !tbaa !109
  tail call void @llvm.memcpy.p0.p0.i64(ptr nonnull align 4 %54, ptr align 4 %59, i64 %53, i1 false)
  br label %60

60:                                               ; preds = %57, %46
  %61 = add nuw i64 %.03473.us, 1
  %.not48.us = icmp ult i64 %61, %37
  br i1 %.not48.us, label %46, label %.loopexit, !llvm.loop !292

.lr.ph.split:                                     ; preds = %pmix_tma_calloc.exit.thread, %81
  %62 = phi i64 [ %82, %81 ], [ %.pre, %pmix_tma_calloc.exit.thread ]
  %.03473 = phi i64 [ %83, %81 ], [ 0, %pmix_tma_calloc.exit.thread ]
  %63 = load ptr, ptr %44, align 8, !tbaa !134
  %64 = getelementptr inbounds nuw %struct.pmix_coord, ptr %63, i64 %.03473
  %65 = load ptr, ptr %33, align 8, !tbaa !134
  %66 = getelementptr inbounds nuw %struct.pmix_coord, ptr %65, i64 %.03473
  %67 = load i8, ptr %66, align 8, !tbaa !106
  store i8 %67, ptr %64, align 8, !tbaa !106
  %68 = getelementptr inbounds nuw i8, ptr %66, i64 16
  %69 = load i64, ptr %68, align 8, !tbaa !238
  %70 = getelementptr inbounds nuw i8, ptr %64, i64 16
  store i64 %69, ptr %70, align 8, !tbaa !238
  %.not.i55 = icmp eq i64 %69, 0
  br i1 %.not.i55, label %81, label %pmix_tma_malloc.exit.i57

pmix_tma_malloc.exit.i57:                         ; preds = %.lr.ph.split
  %71 = shl i64 %69, 2
  %72 = load ptr, ptr %2, align 8, !tbaa !39
  %73 = tail call ptr %72(ptr noundef nonnull %2, i64 noundef %71) #17
  %74 = getelementptr inbounds nuw i8, ptr %64, i64 8
  store ptr %73, ptr %74, align 8, !tbaa !109
  %75 = icmp eq ptr %73, null
  br i1 %75, label %.thread69, label %76, !prof !29

76:                                               ; preds = %pmix_tma_malloc.exit.i57
  %77 = getelementptr inbounds nuw i8, ptr %66, i64 8
  %78 = load ptr, ptr %77, align 8, !tbaa !109
  %79 = load i64, ptr %70, align 8, !tbaa !238
  %80 = shl i64 %79, 2
  tail call void @llvm.memcpy.p0.p0.i64(ptr nonnull align 4 %73, ptr align 4 %78, i64 %80, i1 false)
  %.pre76 = load i64, ptr %38, align 8, !tbaa !135
  br label %81

.thread69:                                        ; preds = %pmix_tma_malloc.exit.i57, %pmix_tma_malloc.exit.i57.us
  tail call void @PMIx_Geometry_free(ptr noundef nonnull %.0.i.i, i64 noundef 1) #17
  br label %pmix_bfrops_base_tma_geometry_create.exit.thread

81:                                               ; preds = %76, %.lr.ph.split
  %82 = phi i64 [ %.pre76, %76 ], [ %62, %.lr.ph.split ]
  %83 = add nuw i64 %.03473, 1
  %.not48 = icmp ult i64 %83, %82
  br i1 %.not48, label %.lr.ph.split, label %.loopexit, !llvm.loop !292

.loopexit:                                        ; preds = %81, %60, %pmix_tma_calloc.exit.thread, %pmix_tma_calloc.exit, %32
  store ptr %.0.i.i, ptr %0, align 8, !tbaa !293
  br label %pmix_bfrops_base_tma_geometry_create.exit.thread

pmix_bfrops_base_tma_geometry_create.exit.thread: ; preds = %pmix_tma_malloc.exit.i, %.thread69, %.loopexit
  %.0 = phi i32 [ 0, %.loopexit ], [ -32, %.thread69 ], [ -32, %pmix_tma_malloc.exit.i ]
  ret i32 %.0
}